; Function Attrs: nounwind uwtable
define internal fastcc range(i32 0, 2) i32 @string_cmp_ic(ptr noundef readonly captures(none) %0, i32 noundef %1, ptr noundef %2, ptr noundef nonnull captures(none) %3, i32 noundef %4) unnamed_addr #4 {
  %6 = alloca ptr, align 8
  %7 = alloca [18 x i8], align 16
  %8 = alloca [18 x i8], align 16
  %9 = alloca ptr, align 8
  store ptr %2, ptr %6, align 8, !tbaa !106
  call void @llvm.lifetime.start.p0(i64 18, ptr nonnull %7) #30
  call void @llvm.lifetime.start.p0(i64 18, ptr nonnull %8) #30
  call void @llvm.lifetime.start.p0(i64 8, ptr nonnull %9) #30
  %10 = load ptr, ptr %3, align 8, !tbaa !106
  store ptr %10, ptr %9, align 8, !tbaa !106
  %11 = sext i32 %4 to i64
  %12 = getelementptr inbounds i8, ptr %2, i64 %11
  %13 = getelementptr inbounds i8, ptr %10, i64 %11
  %14 = getelementptr inbounds nuw i8, ptr %0, i64 56
  %15 = load ptr, ptr %6, align 8, !tbaa !106
  %16 = icmp ult ptr %15, %12
  br i1 %16, label %.lr.ph43.preheader, label %.loopexit27

.lr.ph43.preheader:                               ; preds = %5
  %invariant.gep = getelementptr i8, ptr %7, i64 -1
  br label %.lr.ph43

17:                                               ; preds = %._crit_edge
  br i1 %31, label %.lr.ph43, label %.loopexit27, !llvm.loop !132

.lr.ph43:                                         ; preds = %.lr.ph43.preheader, %17
  %18 = load ptr, ptr %14, align 8, !tbaa !133
  %19 = call i32 %18(i32 noundef %1, ptr noundef nonnull %6, ptr noundef nonnull %12, ptr noundef nonnull %7) #30
  %20 = load ptr, ptr %14, align 8, !tbaa !133
  %21 = call i32 %20(i32 noundef %1, ptr noundef nonnull %9, ptr noundef %13, ptr noundef nonnull %8) #30
  %.not = icmp eq i32 %19, %21
  br i1 %.not, label %.preheader, label %.loopexit

.preheader:                                       ; preds = %.lr.ph43
  %22 = icmp sgt i32 %19, 0
  br i1 %22, label %.lr.ph.preheader, label %._crit_edge

.lr.ph.preheader:                                 ; preds = %.preheader
  %23 = zext nneg i32 %19 to i64
  %gep = getelementptr i8, ptr %invariant.gep, i64 %23
  br label %.lr.ph

.lr.ph:                                           ; preds = %.lr.ph.preheader, %26
  %.02130 = phi ptr [ %27, %26 ], [ %7, %.lr.ph.preheader ]
  %.02229 = phi ptr [ %28, %26 ], [ %8, %.lr.ph.preheader ]
  %24 = load i8, ptr %.02130, align 1, !tbaa !56
  %25 = load i8, ptr %.02229, align 1, !tbaa !56
  %.not26 = icmp eq i8 %24, %25
  br i1 %.not26, label %26, label %.loopexit

26:                                               ; preds = %.lr.ph
  %27 = getelementptr inbounds nuw i8, ptr %.02130, i64 1
  %28 = getelementptr inbounds nuw i8, ptr %.02229, i64 1
  %exitcond.not = icmp eq ptr %.02130, %gep
  br i1 %exitcond.not, label %._crit_edge, label %.lr.ph, !llvm.loop !134

._crit_edge:                                      ; preds = %26, %.preheader
  %29 = load ptr, ptr %9, align 8, !tbaa !106
  %.not25 = icmp ult ptr %29, %13
  %30 = load ptr, ptr %6, align 8, !tbaa !106
  %31 = icmp ult ptr %30, %12
  br i1 %.not25, label %17, label %32, !llvm.loop !132

32:                                               ; preds = %._crit_edge
  br i1 %31, label %.loopexit, label %.loopexit27

.loopexit27:                                      ; preds = %17, %5, %32
  %33 = phi ptr [ %29, %32 ], [ %10, %5 ], [ %29, %17 ]
  store ptr %33, ptr %3, align 8, !tbaa !106
  br label %.loopexit

.loopexit:                                        ; preds = %.lr.ph43, %.lr.ph, %32, %.loopexit27
  %.0 = phi i32 [ 1, %.loopexit27 ], [ 0, %32 ], [ 0, %.lr.ph ], [ 0, %.lr.ph43 ]
  call void @llvm.lifetime.end.p0(i64 8, ptr nonnull %9) #30
  call void @llvm.lifetime.end.p0(i64 18, ptr nonnull %8) #30
  call void @llvm.lifetime.end.p0(i64 18, ptr nonnull %7) #30
  ret i32 %.0
}